; Function Attrs: nofree nounwind memory(readwrite, inaccessiblemem: write) uwtable
define dso_local void @geod_gensetdistance(ptr noundef initializes((64, 72)) %0, i32 noundef %1, double noundef %2) local_unnamed_addr #0 {
  %4 = and i32 %1, 1
  %.not = icmp eq i32 %4, 0
  br i1 %.not, label %10, label %5

5:                                                ; preds = %3
  %6 = getelementptr inbounds nuw i8, ptr %0, i64 56
  store double %2, ptr %6, align 8, !tbaa !49
  %7 = load double, ptr @NaN, align 8, !tbaa !4
  %8 = getelementptr inbounds nuw i8, ptr %0, i64 64
  store double %7, ptr %8, align 8, !tbaa !48
  %9 = tail call double @geod_genposition(ptr noundef %0, i32 noundef 1, double noundef %2, ptr noundef null, ptr noundef null, ptr noundef null, ptr noundef nonnull %8, ptr noundef null, ptr noundef null, ptr noundef null, ptr noundef null)
  br label %14

10:                                               ; preds = %3
  %11 = getelementptr inbounds nuw i8, ptr %0, i64 64
  store double %2, ptr %11, align 8, !tbaa !48
  %12 = tail call double @geod_genposition(ptr noundef %0, i32 noundef 0, double noundef %2, ptr noundef null, ptr noundef null, ptr noundef null, ptr noundef null, ptr noundef null, ptr noundef null, ptr noundef null, ptr noundef null)
  %13 = getelementptr inbounds nuw i8, ptr %0, i64 56
  store double %12, ptr %13, align 8, !tbaa !49
  br label %14

14:                                               ; preds = %10, %5
  ret void
}